; Function Attrs: nofree norecurse nosync nounwind memory(read, argmem: readwrite, inaccessiblemem: none) uwtable
define hidden i32 @lxb_encoding_decode_utf_16be_single(ptr noundef captures(none) %0, ptr noundef captures(none) %1, ptr noundef readnone captures(address) %2) local_unnamed_addr #5 {
  %4 = getelementptr inbounds nuw i8, ptr %0, i64 64
  %5 = load i32, ptr %4, align 8, !tbaa !24
  %.not.i = icmp eq i32 %5, 0
  br i1 %.not.i, label %._crit_edge.i, label %6

._crit_edge.i:                                    ; preds = %3
  %.pre.i = load ptr, ptr %1, align 8, !tbaa !4
  br label %8

6:                                                ; preds = %3
  %7 = add i32 %5, -1
  store i32 0, ptr %4, align 8, !tbaa !24
  %.pre = load ptr, ptr %1, align 8, !tbaa !4
  br label %15

8:                                                ; preds = %40, %._crit_edge.i
  %9 = phi ptr [ %.pre.i, %._crit_edge.i ], [ %18, %40 ]
  %10 = getelementptr inbounds nuw i8, ptr %9, i64 1
  store ptr %10, ptr %1, align 8, !tbaa !4
  %11 = load i8, ptr %9, align 1, !tbaa !24
  %12 = zext i8 %11 to i32
  %.not38.i = icmp ult ptr %10, %2
  br i1 %.not38.i, label %15, label %13

13:                                               ; preds = %8
  %14 = add nuw nsw i32 %12, 1
  store i32 %14, ptr %4, align 8, !tbaa !24
  br label %lxb_encoding_decode_utf_16_single.exit

15:                                               ; preds = %8, %6
  %16 = phi ptr [ %.pre, %6 ], [ %10, %8 ]
  %.031.i = phi i32 [ %7, %6 ], [ %12, %8 ]
  %17 = shl i32 %.031.i, 8
  %18 = getelementptr inbounds nuw i8, ptr %16, i64 1
  store ptr %18, ptr %1, align 8, !tbaa !4
  %19 = load i8, ptr %16, align 1, !tbaa !24
  %20 = zext i8 %19 to i32
  %21 = or disjoint i32 %17, %20
  %22 = getelementptr inbounds nuw i8, ptr %0, i64 52
  %23 = load i32, ptr %22, align 4, !tbaa !27
  %.not36.i = icmp eq i32 %23, 0
  br i1 %.not36.i, label %34, label %24

24:                                               ; preds = %15
  %25 = add i32 %21, -56320
  %26 = icmp ult i32 %25, 1024
  br i1 %26, label %27, label %32

27:                                               ; preds = %24
  %28 = shl i32 %23, 10
  %29 = add i32 %28, -56557568
  %30 = or disjoint i32 %29, %25
  %31 = getelementptr inbounds nuw i8, ptr %0, i64 48
  store i32 %30, ptr %31, align 8, !tbaa !25
  store i32 0, ptr %22, align 4, !tbaa !27
  br label %lxb_encoding_decode_utf_16_single.exit

32:                                               ; preds = %24
  store ptr %16, ptr %1, align 8, !tbaa !4
  %33 = add nuw i32 %.031.i, 1
  store i32 %33, ptr %4, align 8, !tbaa !24
  store i32 0, ptr %22, align 4, !tbaa !27
  br label %lxb_encoding_decode_utf_16_single.exit

34:                                               ; preds = %15
  %35 = and i32 %.031.i, 16777208
  %36 = icmp eq i32 %35, 216
  br i1 %36, label %37, label %lxb_encoding_decode_utf_16_single.exit

37:                                               ; preds = %34
  %38 = and i32 %.031.i, 220
  %39 = icmp eq i32 %38, 220
  br i1 %39, label %lxb_encoding_decode_utf_16_single.exit, label %40

40:                                               ; preds = %37
  store i32 %21, ptr %22, align 4, !tbaa !27
  %.not37.i = icmp ult ptr %18, %2
  br i1 %.not37.i, label %8, label %lxb_encoding_decode_utf_16_single.exit

lxb_encoding_decode_utf_16_single.exit:           ; preds = %13, %27, %32, %34, %37, %40
  %.032.i = phi i32 [ %30, %27 ], [ 2097151, %32 ], [ 3145727, %13 ], [ 2097151, %37 ], [ 3145727, %40 ], [ %21, %34 ]
  ret i32 %.032.i
}